target datalayout = "e-m:e-p270:32:32-p271:32:32-p272:64:64-i64:64-i128:128-f80:128-n8:16:32:64-S128"
target triple = "x86_64-pc-linux-gnu"

%struct.gmx_sel_lexer_t = type { ptr, %"class.std::__exception_ptr::exception_ptr", i8, ptr, i32, ptr, %"class.std::__cxx11::basic_string", %"struct.gmx::SelectionLocation", ptr, i32, i32, i32, ptr, i8, ptr, i32, i8, i8, i8, i8, ptr }
%"class.std::__exception_ptr::exception_ptr" = type { ptr }
%"class.std::__cxx11::basic_string" = type { %"struct.std::__cxx11::basic_string<char>::_Alloc_hider", i64, %union.anon }
%"struct.std::__cxx11::basic_string<char>::_Alloc_hider" = type { ptr }
%union.anon = type { i64, [8 x i8] }
%"struct.gmx::SelectionLocation" = type { i32, i32 }
%struct.gmx_ana_selparam_t = type { ptr, %struct.gmx_ana_selvalue_t, ptr, i32 }
%struct.gmx_ana_selvalue_t = type { i32, i32, %union.anon.0, i32 }
%union.anon.0 = type { ptr }
%class.anon = type { i8 }

@.str = private unnamed_addr constant [12 x i8] c"yylval->str\00", align 1
@.str.1 = private unnamed_addr constant [136 x i8] c"generated/home/dtcxzyw/WorkSpace/Projects/compilers/llvm-opt-benchmark/bench/gromacs/gromacs/src/gromacs/selection/scanner_internal.cpp\00", align 1
@.str.2 = private unnamed_addr constant [23 x i8] c"param->name != nullptr\00", align 1
@.str.3 = private unnamed_addr constant [56 x i8] c"bBoolNo should only be set for a parameters with a name\00", align 1
@"__PRETTY_FUNCTION__._ZZL16init_param_tokenP7YYSTYPEP18gmx_ana_selparam_tbENK3$_0clEv" = private unnamed_addr constant [100 x i8] c"auto init_param_token(YYSTYPE *, gmx_ana_selparam_t *, bool)::(anonymous class)::operator()() const\00", align 1

; Function Attrs: mustprogress uwtable
define internal void @_ZL13gmx_snew_implIcEvPKcS1_iRPT_m(ptr noundef %0, ptr noundef %1, i32 noundef %2, ptr noundef nonnull align 8 dereferenceable(8) %3, i64 noundef %4) #0 {
  %6 = alloca ptr, align 8
  %7 = alloca ptr, align 8
  %8 = alloca i32, align 4
  %9 = alloca ptr, align 8
  %10 = alloca i64, align 8
  store ptr %0, ptr %6, align 8
  store ptr %1, ptr %7, align 8
  store i32 %2, ptr %8, align 4
  store ptr %3, ptr %9, align 8
  store i64 %4, ptr %10, align 8
  %11 = load ptr, ptr %6, align 8
  %12 = load ptr, ptr %7, align 8
  %13 = load i32, ptr %8, align 4
  %14 = load i64, ptr %10, align 8
  %15 = call noundef ptr @_Z11save_callocPKcS0_imm(ptr noundef %11, ptr noundef %12, i32 noundef %13, i64 noundef %14, i64 noundef 1)
  %16 = load ptr, ptr %9, align 8
  store ptr %15, ptr %16, align 8
  ret void
}

; Function Attrs: mustprogress uwtable
define internal void @"_ZZL16init_param_tokenP7YYSTYPEP18gmx_ana_selparam_tbENK3$_0clEv"(ptr noundef nonnull align 1 dereferenceable(1) %0) #0 align 2 {
  %2 = alloca ptr, align 8
  store ptr %0, ptr %2, align 8
  call void @_ZN3gmx8internal13assertHandlerEPKcS2_S2_S2_i(ptr noundef @.str.2, ptr noundef @.str.3, ptr noundef @"__PRETTY_FUNCTION__._ZZL16init_param_tokenP7YYSTYPEP18gmx_ana_selparam_tbENK3$_0clEv", ptr noundef @.str.1, i32 noundef 91) #12
  unreachable
}

; Function Attrs: mustprogress uwtable
define internal noundef i32 @_ZL16init_param_tokenP7YYSTYPEP18gmx_ana_selparam_tb(ptr noundef %0, ptr noundef %1, i1 noundef zeroext %2) #0 {
  %4 = alloca ptr, align 8
  %5 = alloca ptr, align 8
  %6 = alloca i8, align 1
  %7 = alloca %class.anon, align 1
  store ptr %0, ptr %4, align 8
  store ptr %1, ptr %5, align 8
  %8 = zext i1 %2 to i8
  store i8 %8, ptr %6, align 1
  %9 = load i8, ptr %6, align 1
  %10 = trunc i8 %9 to i1
  br i1 %10, label %11, label %38

11:                                               ; preds = %3
  %12 = load ptr, ptr %5, align 8
  %13 = getelementptr inbounds %struct.gmx_ana_selparam_t, ptr %12, i32 0, i32 0
  %14 = load ptr, ptr %13, align 8
  %15 = icmp ne ptr %14, null
  br i1 %15, label %16, label %17

16:                                               ; preds = %11
  br label %18

17:                                               ; preds = %11
  call void @"_ZZL16init_param_tokenP7YYSTYPEP18gmx_ana_selparam_tbENK3$_0clEv"(ptr noundef nonnull align 1 dereferenceable(1) %7)
  br label %18

18:                                               ; preds = %17, %16
  %19 = load ptr, ptr %4, align 8
  %20 = load ptr, ptr %5, align 8
  %21 = getelementptr inbounds %struct.gmx_ana_selparam_t, ptr %20, i32 0, i32 0
  %22 = load ptr, ptr %21, align 8
  %23 = call i64 @strlen(ptr noundef %22) #11
  %24 = add i64 %23, 3
  call void @_ZL13gmx_snew_implIcEvPKcS1_iRPT_m(ptr noundef @.str, ptr noundef @.str.1, i32 noundef 92, ptr noundef nonnull align 8 dereferenceable(8) %19, i64 noundef %24)
  %25 = load ptr, ptr %4, align 8
  %26 = load ptr, ptr %25, align 8
  %27 = getelementptr inbounds i8, ptr %26, i64 0
  store i8 110, ptr %27, align 1
  %28 = load ptr, ptr %4, align 8
  %29 = load ptr, ptr %28, align 8
  %30 = getelementptr inbounds i8, ptr %29, i64 1
  store i8 111, ptr %30, align 1
  %31 = load ptr, ptr %4, align 8
  %32 = load ptr, ptr %31, align 8
  %33 = getelementptr inbounds i8, ptr %32, i64 2
  %34 = load ptr, ptr %5, align 8
  %35 = getelementptr inbounds %struct.gmx_ana_selparam_t, ptr %34, i32 0, i32 0
  %36 = load ptr, ptr %35, align 8
  %37 = call ptr @strcpy(ptr noundef %33, ptr noundef %36) #10
  br label %52

38:                                               ; preds = %3
  %39 = load ptr, ptr %5, align 8
  %40 = getelementptr inbounds %struct.gmx_ana_selparam_t, ptr %39, i32 0, i32 0
  %41 = load ptr, ptr %40, align 8
  %42 = icmp ne ptr %41, null
  br i1 %42, label %43, label %48

43:                                               ; preds = %38
  %44 = load ptr, ptr %5, align 8
  %45 = getelementptr inbounds %struct.gmx_ana_selparam_t, ptr %44, i32 0, i32 0
  %46 = load ptr, ptr %45, align 8
  %47 = call noundef ptr @_Z10gmx_strdupPKc(ptr noundef %46)
  br label %49

48:                                               ; preds = %38
  br label %49

49:                                               ; preds = %48, %43
  %50 = phi ptr [ %47, %43 ], [ null, %48 ]
  %51 = load ptr, ptr %4, align 8
  store ptr %50, ptr %51, align 8
  br label %52

52:                                               ; preds = %49, %18
  ret i32 278
}

; Function Attrs: mustprogress uwtable
define noundef i32 @_Z30_gmx_sel_lexer_process_pendingP7YYSTYPEPN3gmx17SelectionLocationEP15gmx_sel_lexer_t(ptr noundef %0, ptr noundef %1, ptr noundef %2) #0 {
  %4 = alloca i32, align 4
  %5 = alloca ptr, align 8
  %6 = alloca ptr, align 8
  %7 = alloca ptr, align 8
  %8 = alloca ptr, align 8
  %9 = alloca i8, align 1
  %10 = alloca ptr, align 8
  store ptr %0, ptr %5, align 8
  store ptr %1, ptr %6, align 8
  store ptr %2, ptr %7, align 8
  %11 = load ptr, ptr %7, align 8
  %12 = getelementptr inbounds %struct.gmx_sel_lexer_t, ptr %11, i32 0, i32 12
  %13 = load ptr, ptr %12, align 8
  %14 = icmp ne ptr %13, null
  br i1 %14, label %15, label %50

15:                                               ; preds = %3
  %16 = load ptr, ptr %7, align 8
  %17 = getelementptr inbounds %struct.gmx_sel_lexer_t, ptr %16, i32 0, i32 12
  %18 = load ptr, ptr %17, align 8
  store ptr %18, ptr %8, align 8
  %19 = load ptr, ptr %7, align 8
  %20 = getelementptr inbounds %struct.gmx_sel_lexer_t, ptr %19, i32 0, i32 13
  %21 = load i8, ptr %20, align 8
  %22 = trunc i8 %21 to i1
  %23 = zext i1 %22 to i8
  store i8 %23, ptr %9, align 1
  %24 = load ptr, ptr %7, align 8
  %25 = getelementptr inbounds %struct.gmx_sel_lexer_t, ptr %24, i32 0, i32 11
  %26 = load i32, ptr %25, align 8
  %27 = icmp sgt i32 %26, 0
  br i1 %27, label %28, label %35

28:                                               ; preds = %15
  %29 = load ptr, ptr %7, align 8
  %30 = getelementptr inbounds %struct.gmx_sel_lexer_t, ptr %29, i32 0, i32 11
  %31 = load i32, ptr %30, align 8
  %32 = add nsw i32 %31, -1
  store i32 %32, ptr %30, align 8
  %33 = load ptr, ptr %6, align 8
  %34 = load ptr, ptr %7, align 8
  call void @_Z24_gmx_sel_lexer_add_tokenPN3gmx17SelectionLocationEPKciP15gmx_sel_lexer_t(ptr noundef %33, ptr noundef null, i32 noundef 0, ptr noundef %34)
  store i32 279, ptr %4, align 4
  br label %77

35:                                               ; preds = %15
  %36 = load ptr, ptr %7, align 8
  %37 = getelementptr inbounds %struct.gmx_sel_lexer_t, ptr %36, i32 0, i32 12
  store ptr null, ptr %37, align 8
  %38 = load ptr, ptr %7, align 8
  %39 = getelementptr inbounds %struct.gmx_sel_lexer_t, ptr %38, i32 0, i32 13
  store i8 0, ptr %39, align 8
  %40 = load ptr, ptr %6, align 8
  %41 = load ptr, ptr %8, align 8
  %42 = getelementptr inbounds %struct.gmx_ana_selparam_t, ptr %41, i32 0, i32 0
  %43 = load ptr, ptr %42, align 8
  %44 = load ptr, ptr %7, align 8
  call void @_Z24_gmx_sel_lexer_add_tokenPN3gmx17SelectionLocationEPKciP15gmx_sel_lexer_t(ptr noundef %40, ptr noundef %43, i32 noundef -1, ptr noundef %44)
  %45 = load ptr, ptr %5, align 8
  %46 = load ptr, ptr %8, align 8
  %47 = load i8, ptr %9, align 1
  %48 = trunc i8 %47 to i1
  %49 = call noundef i32 @_ZL16init_param_tokenP7YYSTYPEP18gmx_ana_selparam_tb(ptr noundef %45, ptr noundef %46, i1 noundef zeroext %48)
  store i32 %49, ptr %4, align 4
  br label %77

50:                                               ; preds = %3
  %51 = load ptr, ptr %7, align 8
  %52 = getelementptr inbounds %struct.gmx_sel_lexer_t, ptr %51, i32 0, i32 15
  %53 = load i32, ptr %52, align 8
  %54 = icmp sgt i32 %53, 0
  br i1 %54, label %55, label %60

55:                                               ; preds = %50
  %56 = load ptr, ptr %7, align 8
  %57 = getelementptr inbounds %struct.gmx_sel_lexer_t, ptr %56, i32 0, i32 15
  %58 = load i32, ptr %57, align 8
  %59 = add nsw i32 %58, -1
  store i32 %59, ptr %57, align 8
  br label %60

60:                                               ; preds = %55, %50
  %61 = load ptr, ptr %7, align 8
  %62 = getelementptr inbounds %struct.gmx_sel_lexer_t, ptr %61, i32 0, i32 14
  %63 = load ptr, ptr %62, align 8
  %64 = icmp ne ptr %63, null
  br i1 %64, label %65, label %76

65:                                               ; preds = %60
  %66 = load ptr, ptr %7, align 8
  %67 = getelementptr inbounds %struct.gmx_sel_lexer_t, ptr %66, i32 0, i32 14
  %68 = load ptr, ptr %67, align 8
  store ptr %68, ptr %10, align 8
  %69 = load ptr, ptr %7, align 8
  %70 = getelementptr inbounds %struct.gmx_sel_lexer_t, ptr %69, i32 0, i32 14
  store ptr null, ptr %70, align 8
  %71 = load ptr, ptr %5, align 8
  %72 = load ptr, ptr %6, align 8
  %73 = load ptr, ptr %10, align 8
  %74 = load ptr, ptr %7, align 8
  %75 = call noundef i32 @_ZL17init_method_tokenP7YYSTYPEPN3gmx17SelectionLocationEPKNS1_21SelectionParserSymbolEbP15gmx_sel_lexer_t(ptr noundef %71, ptr noundef %72, ptr noundef %73, i1 noundef zeroext true, ptr noundef %74)
  store i32 %75, ptr %4, align 4
  br label %77

76:                                               ; preds = %60
  store i32 0, ptr %4, align 4
  br label %77

77:                                               ; preds = %76, %65, %35, %28
  %78 = load i32, ptr %4, align 4
  ret i32 %78
}