; Function Attrs: mustprogress uwtable
define noundef i32 @_Z30_gmx_sel_lexer_process_pendingP7YYSTYPEPN3gmx17SelectionLocationEP15gmx_sel_lexer_t(ptr nocapture noundef %0, ptr nocapture noundef writeonly %1, ptr noundef %2) local_unnamed_addr #0 {
  %4 = getelementptr inbounds i8, ptr %2, i64 112
  %5 = load ptr, ptr %4, align 8
  %.not = icmp eq ptr %5, null
  br i1 %.not, label %39, label %6

6:                                                ; preds = %3
  %7 = getelementptr inbounds i8, ptr %2, i64 104
  %8 = load i32, ptr %7, align 8
  %9 = icmp sgt i32 %8, 0
  br i1 %9, label %10, label %16

10:                                               ; preds = %6
  %11 = add nsw i32 %8, -1
  store i32 %11, ptr %7, align 8
  %12 = getelementptr inbounds i8, ptr %2, i64 48
  %13 = tail call noundef i64 @_ZNKSt7__cxx1112basic_stringIcSt11char_traitsIcESaIcEE4sizeEv(ptr noundef nonnull align 8 dereferenceable(32) %12) #13
  %14 = trunc i64 %13 to i32
  %15 = getelementptr inbounds i8, ptr %1, i64 4
  store i32 %14, ptr %15, align 4
  store i32 %14, ptr %1, align 4
  br label %_ZL16init_param_tokenP7YYSTYPEP18gmx_ana_selparam_tb.exit

16:                                               ; preds = %6
  %17 = getelementptr inbounds i8, ptr %2, i64 120
  %18 = load i8, ptr %17, align 8
  %19 = trunc i8 %18 to i1
  store ptr null, ptr %4, align 8
  store i8 0, ptr %17, align 8
  %20 = load ptr, ptr %5, align 8
  tail call void @_Z24_gmx_sel_lexer_add_tokenPN3gmx17SelectionLocationEPKciP15gmx_sel_lexer_t(ptr noundef %1, ptr noundef %20, i32 noundef -1, ptr noundef nonnull %2)
  %21 = load ptr, ptr %5, align 8
  %.not10.i = icmp eq ptr %21, null
  br i1 %19, label %22, label %34

22:                                               ; preds = %16
  br i1 %.not10.i, label %23, label %24

23:                                               ; preds = %22
  tail call void @_ZN3gmx8internal13assertHandlerEPKcS2_S2_S2_i(ptr noundef nonnull @.str.2, ptr noundef nonnull @.str.3, ptr noundef nonnull @"__PRETTY_FUNCTION__._ZZL16init_param_tokenP7YYSTYPEP18gmx_ana_selparam_tbENK3$_0clEv", ptr noundef nonnull @.str.1, i32 noundef 91) #14
  unreachable

24:                                               ; preds = %22
  %25 = tail call i64 @strlen(ptr noundef nonnull dereferenceable(1) %21) #15
  %26 = add i64 %25, 3
  %27 = tail call noundef ptr @_Z11save_callocPKcS0_imm(ptr noundef nonnull @.str, ptr noundef nonnull @.str.1, i32 noundef 92, i64 noundef %26, i64 noundef 1)
  store ptr %27, ptr %0, align 8
  store i8 110, ptr %27, align 1
  %28 = load ptr, ptr %0, align 8
  %29 = getelementptr inbounds i8, ptr %28, i64 1
  store i8 111, ptr %29, align 1
  %30 = load ptr, ptr %0, align 8
  %31 = getelementptr inbounds i8, ptr %30, i64 2
  %32 = load ptr, ptr %5, align 8
  %33 = tail call ptr @strcpy(ptr noundef nonnull dereferenceable(1) %31, ptr noundef nonnull dereferenceable(1) %32) #13
  br label %_ZL16init_param_tokenP7YYSTYPEP18gmx_ana_selparam_tb.exit

34:                                               ; preds = %16
  br i1 %.not10.i, label %37, label %35

35:                                               ; preds = %34
  %36 = tail call noundef ptr @_Z10gmx_strdupPKc(ptr noundef nonnull %21)
  br label %37

37:                                               ; preds = %35, %34
  %38 = phi ptr [ %36, %35 ], [ null, %34 ]
  store ptr %38, ptr %0, align 8
  br label %_ZL16init_param_tokenP7YYSTYPEP18gmx_ana_selparam_tb.exit

39:                                               ; preds = %3
  %40 = getelementptr inbounds i8, ptr %2, i64 136
  %41 = load i32, ptr %40, align 8
  %42 = icmp sgt i32 %41, 0
  br i1 %42, label %43, label %45

43:                                               ; preds = %39
  %44 = add nsw i32 %41, -1
  store i32 %44, ptr %40, align 8
  br label %45

45:                                               ; preds = %43, %39
  %46 = getelementptr inbounds i8, ptr %2, i64 128
  %47 = load ptr, ptr %46, align 8
  %.not28 = icmp eq ptr %47, null
  br i1 %.not28, label %_ZL16init_param_tokenP7YYSTYPEP18gmx_ana_selparam_tb.exit, label %48

48:                                               ; preds = %45
  store ptr null, ptr %46, align 8
  %49 = tail call fastcc noundef i32 @_ZL17init_method_tokenP7YYSTYPEPN3gmx17SelectionLocationEPKNS1_21SelectionParserSymbolEbP15gmx_sel_lexer_t(ptr noundef %0, ptr noundef %1, ptr noundef nonnull %47, i1 noundef zeroext true, ptr noundef nonnull %2), !range !5
  br label %_ZL16init_param_tokenP7YYSTYPEP18gmx_ana_selparam_tb.exit

_ZL16init_param_tokenP7YYSTYPEP18gmx_ana_selparam_tb.exit: ; preds = %37, %24, %45, %48, %10
  %.0 = phi i32 [ 279, %10 ], [ %49, %48 ], [ 0, %45 ], [ 278, %24 ], [ 278, %37 ]
  ret i32 %.0
}